target datalayout = "e-m:e-p270:32:32-p271:32:32-p272:64:64-i64:64-i128:128-f80:128-n8:16:32:64-S128"
target triple = "x86_64-pc-linux-gnu"

@hf_Tango_AttributeValue_4_quality = internal global i32 0, align 4
@hf_Tango_AttributeValue_4_data_format = internal global i32 0, align 4
@hf_Tango_AttributeValue_4_name = internal global i32 0, align 4
@hf_Tango_AttributeValue_4_err_list_loop = internal global i32 0, align 4
@hf_Tango_AttributeDim_dim_x = internal global i32 0, align 4
@hf_Tango_AttributeDim_dim_y = internal global i32 0, align 4
@hf_Tango_DevError_reason = internal global i32 0, align 4
@hf_Tango_DevError_severity = internal global i32 0, align 4
@hf_Tango_DevError_desc = internal global i32 0, align 4
@hf_Tango_DevError_origin = internal global i32 0, align 4
@hf_Tango_TimeVal_tv_sec = internal global i32 0, align 4
@hf_Tango_TimeVal_tv_usec = internal global i32 0, align 4
@hf_Tango_TimeVal_tv_nsec = internal global i32 0, align 4
@ett_giop_struct = internal global i32 0, align 4
@ett_giop_sequence = internal global i32 0, align 4
@ett_giop_union = internal global i32 0, align 4
@boundary = internal global i32 12, align 4
@.str.764 = private unnamed_addr constant [22 x i8] c"struct Tango_DevError\00", align 1
@.str.773 = private unnamed_addr constant [21 x i8] c"struct Tango_TimeVal\00", align 1
@.str.789 = private unnamed_addr constant [26 x i8] c"struct Tango_AttributeDim\00", align 1
@.str.800 = private unnamed_addr constant [25 x i8] c"union Tango_AttrValUnion\00", align 1
@.str.801 = private unnamed_addr constant [41 x i8] c"sequence Tango_AttributeValue_4_err_list\00", align 1

; Function Attrs: null_pointer_is_valid sspstrong uwtable
define internal void @decode_Tango_DevError_st(ptr noundef %0, ptr noundef %1, ptr noundef %2, ptr noundef %3, ptr noundef %4, ptr noundef %5, ptr noundef %6, i1 noundef zeroext %7) #0 {
  %9 = alloca ptr, align 8
  %10 = alloca ptr, align 8
  %11 = alloca ptr, align 8
  %12 = alloca ptr, align 8
  %13 = alloca ptr, align 8
  %14 = alloca ptr, align 8
  %15 = alloca ptr, align 8
  %16 = alloca i8, align 1
  %17 = alloca i32, align 4
  store ptr %0, ptr %9, align 8
  store ptr %1, ptr %10, align 8
  store ptr %2, ptr %11, align 8
  store ptr %3, ptr %12, align 8
  store ptr %4, ptr %13, align 8
  store ptr %5, ptr %14, align 8
  store ptr %6, ptr %15, align 8
  %18 = zext i1 %7 to i8
  store i8 %18, ptr %16, align 1
  call void @llvm.lifetime.start.p0(i64 4, ptr %17) #6
  %19 = load ptr, ptr %11, align 8
  %20 = load ptr, ptr %9, align 8
  %21 = load ptr, ptr %13, align 8
  %22 = load i8, ptr %16, align 1, !range !6, !noundef !7
  %23 = trunc i8 %22 to i1
  %24 = load i32, ptr @boundary, align 4
  %25 = load i32, ptr @hf_Tango_DevError_reason, align 4
  call void @giop_add_CDR_string(ptr noundef %19, ptr noundef %20, ptr noundef %21, i1 noundef zeroext %23, i32 noundef %24, i32 noundef %25)
  %26 = load ptr, ptr %9, align 8
  %27 = load ptr, ptr %13, align 8
  %28 = load i8, ptr %16, align 1, !range !6, !noundef !7
  %29 = trunc i8 %28 to i1
  %30 = load i32, ptr @boundary, align 4
  %31 = call i32 @get_CDR_enum(ptr noundef %26, ptr noundef %27, i1 noundef zeroext %29, i32 noundef %30)
  store i32 %31, ptr %17, align 4
  %32 = load ptr, ptr %11, align 8
  %33 = load i32, ptr @hf_Tango_DevError_severity, align 4
  %34 = load ptr, ptr %9, align 8
  %35 = load ptr, ptr %13, align 8
  %36 = load i32, ptr %35, align 4
  %37 = sub i32 %36, 4
  %38 = load i32, ptr %17, align 4
  %39 = call ptr @proto_tree_add_uint(ptr noundef %32, i32 noundef %33, ptr noundef %34, i32 noundef %37, i32 noundef 4, i32 noundef %38)
  %40 = load ptr, ptr %11, align 8
  %41 = load ptr, ptr %9, align 8
  %42 = load ptr, ptr %13, align 8
  %43 = load i8, ptr %16, align 1, !range !6, !noundef !7
  %44 = trunc i8 %43 to i1
  %45 = load i32, ptr @boundary, align 4
  %46 = load i32, ptr @hf_Tango_DevError_desc, align 4
  call void @giop_add_CDR_string(ptr noundef %40, ptr noundef %41, ptr noundef %42, i1 noundef zeroext %44, i32 noundef %45, i32 noundef %46)
  %47 = load ptr, ptr %11, align 8
  %48 = load ptr, ptr %9, align 8
  %49 = load ptr, ptr %13, align 8
  %50 = load i8, ptr %16, align 1, !range !6, !noundef !7
  %51 = trunc i8 %50 to i1
  %52 = load i32, ptr @boundary, align 4
  %53 = load i32, ptr @hf_Tango_DevError_origin, align 4
  call void @giop_add_CDR_string(ptr noundef %47, ptr noundef %48, ptr noundef %49, i1 noundef zeroext %51, i32 noundef %52, i32 noundef %53)
  call void @llvm.lifetime.end.p0(i64 4, ptr %17) #6
  ret void
}

; Function Attrs: null_pointer_is_valid sspstrong uwtable
define internal void @decode_Tango_AttributeDim_st(ptr noundef %0, ptr noundef %1, ptr noundef %2, ptr noundef %3, ptr noundef %4, ptr noundef %5, ptr noundef %6, i1 noundef zeroext %7) #0 {
  %9 = alloca ptr, align 8
  %10 = alloca ptr, align 8
  %11 = alloca ptr, align 8
  %12 = alloca ptr, align 8
  %13 = alloca ptr, align 8
  %14 = alloca ptr, align 8
  %15 = alloca ptr, align 8
  %16 = alloca i8, align 1
  store ptr %0, ptr %9, align 8
  store ptr %1, ptr %10, align 8
  store ptr %2, ptr %11, align 8
  store ptr %3, ptr %12, align 8
  store ptr %4, ptr %13, align 8
  store ptr %5, ptr %14, align 8
  store ptr %6, ptr %15, align 8
  %17 = zext i1 %7 to i8
  store i8 %17, ptr %16, align 1
  %18 = load ptr, ptr %11, align 8
  %19 = load i32, ptr @hf_Tango_AttributeDim_dim_x, align 4
  %20 = load ptr, ptr %9, align 8
  %21 = load ptr, ptr %13, align 8
  %22 = load i32, ptr %21, align 4
  %23 = sub i32 %22, 4
  %24 = load ptr, ptr %9, align 8
  %25 = load ptr, ptr %13, align 8
  %26 = load i8, ptr %16, align 1, !range !6, !noundef !7
  %27 = trunc i8 %26 to i1
  %28 = load i32, ptr @boundary, align 4
  %29 = call i32 @get_CDR_long(ptr noundef %24, ptr noundef %25, i1 noundef zeroext %27, i32 noundef %28)
  %30 = call ptr @proto_tree_add_int(ptr noundef %18, i32 noundef %19, ptr noundef %20, i32 noundef %23, i32 noundef 4, i32 noundef %29)
  %31 = load ptr, ptr %11, align 8
  %32 = load i32, ptr @hf_Tango_AttributeDim_dim_y, align 4
  %33 = load ptr, ptr %9, align 8
  %34 = load ptr, ptr %13, align 8
  %35 = load i32, ptr %34, align 4
  %36 = sub i32 %35, 4
  %37 = load ptr, ptr %9, align 8
  %38 = load ptr, ptr %13, align 8
  %39 = load i8, ptr %16, align 1, !range !6, !noundef !7
  %40 = trunc i8 %39 to i1
  %41 = load i32, ptr @boundary, align 4
  %42 = call i32 @get_CDR_long(ptr noundef %37, ptr noundef %38, i1 noundef zeroext %40, i32 noundef %41)
  %43 = call ptr @proto_tree_add_int(ptr noundef %31, i32 noundef %32, ptr noundef %33, i32 noundef %36, i32 noundef 4, i32 noundef %42)
  ret void
}

; Function Attrs: null_pointer_is_valid sspstrong uwtable
define internal void @decode_Tango_TimeVal_st(ptr noundef %0, ptr noundef %1, ptr noundef %2, ptr noundef %3, ptr noundef %4, ptr noundef %5, ptr noundef %6, i1 noundef zeroext %7) #0 {
  %9 = alloca ptr, align 8
  %10 = alloca ptr, align 8
  %11 = alloca ptr, align 8
  %12 = alloca ptr, align 8
  %13 = alloca ptr, align 8
  %14 = alloca ptr, align 8
  %15 = alloca ptr, align 8
  %16 = alloca i8, align 1
  store ptr %0, ptr %9, align 8
  store ptr %1, ptr %10, align 8
  store ptr %2, ptr %11, align 8
  store ptr %3, ptr %12, align 8
  store ptr %4, ptr %13, align 8
  store ptr %5, ptr %14, align 8
  store ptr %6, ptr %15, align 8
  %17 = zext i1 %7 to i8
  store i8 %17, ptr %16, align 1
  %18 = load ptr, ptr %11, align 8
  %19 = load i32, ptr @hf_Tango_TimeVal_tv_sec, align 4
  %20 = load ptr, ptr %9, align 8
  %21 = load ptr, ptr %13, align 8
  %22 = load i32, ptr %21, align 4
  %23 = sub i32 %22, 4
  %24 = load ptr, ptr %9, align 8
  %25 = load ptr, ptr %13, align 8
  %26 = load i8, ptr %16, align 1, !range !6, !noundef !7
  %27 = trunc i8 %26 to i1
  %28 = load i32, ptr @boundary, align 4
  %29 = call i32 @get_CDR_long(ptr noundef %24, ptr noundef %25, i1 noundef zeroext %27, i32 noundef %28)
  %30 = call ptr @proto_tree_add_int(ptr noundef %18, i32 noundef %19, ptr noundef %20, i32 noundef %23, i32 noundef 4, i32 noundef %29)
  %31 = load ptr, ptr %11, align 8
  %32 = load i32, ptr @hf_Tango_TimeVal_tv_usec, align 4
  %33 = load ptr, ptr %9, align 8
  %34 = load ptr, ptr %13, align 8
  %35 = load i32, ptr %34, align 4
  %36 = sub i32 %35, 4
  %37 = load ptr, ptr %9, align 8
  %38 = load ptr, ptr %13, align 8
  %39 = load i8, ptr %16, align 1, !range !6, !noundef !7
  %40 = trunc i8 %39 to i1
  %41 = load i32, ptr @boundary, align 4
  %42 = call i32 @get_CDR_long(ptr noundef %37, ptr noundef %38, i1 noundef zeroext %40, i32 noundef %41)
  %43 = call ptr @proto_tree_add_int(ptr noundef %31, i32 noundef %32, ptr noundef %33, i32 noundef %36, i32 noundef 4, i32 noundef %42)
  %44 = load ptr, ptr %11, align 8
  %45 = load i32, ptr @hf_Tango_TimeVal_tv_nsec, align 4
  %46 = load ptr, ptr %9, align 8
  %47 = load ptr, ptr %13, align 8
  %48 = load i32, ptr %47, align 4
  %49 = sub i32 %48, 4
  %50 = load ptr, ptr %9, align 8
  %51 = load ptr, ptr %13, align 8
  %52 = load i8, ptr %16, align 1, !range !6, !noundef !7
  %53 = trunc i8 %52 to i1
  %54 = load i32, ptr @boundary, align 4
  %55 = call i32 @get_CDR_long(ptr noundef %50, ptr noundef %51, i1 noundef zeroext %53, i32 noundef %54)
  %56 = call ptr @proto_tree_add_int(ptr noundef %44, i32 noundef %45, ptr noundef %46, i32 noundef %49, i32 noundef 4, i32 noundef %55)
  ret void
}

; Function Attrs: null_pointer_is_valid sspstrong uwtable
define internal void @decode_Tango_AttributeValue_4_st(ptr noundef %0, ptr noundef %1, ptr noundef %2, ptr noundef %3, ptr noundef %4, ptr noundef %5, ptr noundef %6, i1 noundef zeroext %7) #0 {
  %9 = alloca ptr, align 8
  %10 = alloca ptr, align 8
  %11 = alloca ptr, align 8
  %12 = alloca ptr, align 8
  %13 = alloca ptr, align 8
  %14 = alloca ptr, align 8
  %15 = alloca ptr, align 8
  %16 = alloca i8, align 1
  %17 = alloca i32, align 4
  %18 = alloca i32, align 4
  %19 = alloca i32, align 4
  %20 = alloca ptr, align 8
  %21 = alloca ptr, align 8
  %22 = alloca ptr, align 8
  %23 = alloca ptr, align 8
  %24 = alloca ptr, align 8
  %25 = alloca ptr, align 8
  store ptr %0, ptr %9, align 8
  store ptr %1, ptr %10, align 8
  store ptr %2, ptr %11, align 8
  store ptr %3, ptr %12, align 8
  store ptr %4, ptr %13, align 8
  store ptr %5, ptr %14, align 8
  store ptr %6, ptr %15, align 8
  %26 = zext i1 %7 to i8
  store i8 %26, ptr %16, align 1
  call void @llvm.lifetime.start.p0(i64 4, ptr %17) #6
  call void @llvm.lifetime.start.p0(i64 4, ptr %18) #6
  call void @llvm.lifetime.start.p0(i64 4, ptr %19) #6
  call void @llvm.lifetime.start.p0(i64 8, ptr %20) #6
  %27 = load ptr, ptr %11, align 8
  %28 = load ptr, ptr %9, align 8
  %29 = load ptr, ptr %13, align 8
  %30 = load i32, ptr %29, align 4
  %31 = load i32, ptr @ett_giop_union, align 4
  %32 = call ptr @proto_tree_add_subtree(ptr noundef %27, ptr noundef %28, i32 noundef %30, i32 noundef -1, i32 noundef %31, ptr noundef null, ptr noundef @.str.800)
  store ptr %32, ptr %20, align 8
  %33 = load ptr, ptr %9, align 8
  %34 = load ptr, ptr %10, align 8
  %35 = load ptr, ptr %20, align 8
  %36 = load ptr, ptr %13, align 8
  %37 = load ptr, ptr %14, align 8
  %38 = load ptr, ptr %15, align 8
  %39 = load i8, ptr %16, align 1, !range !6, !noundef !7
  %40 = trunc i8 %39 to i1
  call void @decode_Tango_AttrValUnion_un(ptr noundef %33, ptr noundef %34, ptr noundef %35, ptr noundef %36, ptr noundef %37, ptr noundef %38, i1 noundef zeroext %40)
  call void @llvm.lifetime.end.p0(i64 8, ptr %20) #6
  %41 = load ptr, ptr %9, align 8
  %42 = load ptr, ptr %13, align 8
  %43 = load i8, ptr %16, align 1, !range !6, !noundef !7
  %44 = trunc i8 %43 to i1
  %45 = load i32, ptr @boundary, align 4
  %46 = call i32 @get_CDR_enum(ptr noundef %41, ptr noundef %42, i1 noundef zeroext %44, i32 noundef %45)
  store i32 %46, ptr %17, align 4
  %47 = load ptr, ptr %11, align 8
  %48 = load i32, ptr @hf_Tango_AttributeValue_4_quality, align 4
  %49 = load ptr, ptr %9, align 8
  %50 = load ptr, ptr %13, align 8
  %51 = load i32, ptr %50, align 4
  %52 = sub i32 %51, 4
  %53 = load i32, ptr %17, align 4
  %54 = call ptr @proto_tree_add_uint(ptr noundef %47, i32 noundef %48, ptr noundef %49, i32 noundef %52, i32 noundef 4, i32 noundef %53)
  %55 = load ptr, ptr %9, align 8
  %56 = load ptr, ptr %13, align 8
  %57 = load i8, ptr %16, align 1, !range !6, !noundef !7
  %58 = trunc i8 %57 to i1
  %59 = load i32, ptr @boundary, align 4
  %60 = call i32 @get_CDR_enum(ptr noundef %55, ptr noundef %56, i1 noundef zeroext %58, i32 noundef %59)
  store i32 %60, ptr %17, align 4
  %61 = load ptr, ptr %11, align 8
  %62 = load i32, ptr @hf_Tango_AttributeValue_4_data_format, align 4
  %63 = load ptr, ptr %9, align 8
  %64 = load ptr, ptr %13, align 8
  %65 = load i32, ptr %64, align 4
  %66 = sub i32 %65, 4
  %67 = load i32, ptr %17, align 4
  %68 = call ptr @proto_tree_add_uint(ptr noundef %61, i32 noundef %62, ptr noundef %63, i32 noundef %66, i32 noundef 4, i32 noundef %67)
  call void @llvm.lifetime.start.p0(i64 8, ptr %21) #6
  %69 = load ptr, ptr %11, align 8
  %70 = load ptr, ptr %9, align 8
  %71 = load ptr, ptr %13, align 8
  %72 = load i32, ptr %71, align 4
  %73 = load i32, ptr @ett_giop_struct, align 4
  %74 = call ptr @proto_tree_add_subtree(ptr noundef %69, ptr noundef %70, i32 noundef %72, i32 noundef -1, i32 noundef %73, ptr noundef null, ptr noundef @.str.773)
  store ptr %74, ptr %21, align 8
  %75 = load ptr, ptr %9, align 8
  %76 = load ptr, ptr %10, align 8
  %77 = load ptr, ptr %21, align 8
  %78 = load ptr, ptr %12, align 8
  %79 = load ptr, ptr %13, align 8
  %80 = load ptr, ptr %14, align 8
  %81 = load ptr, ptr %15, align 8
  %82 = load i8, ptr %16, align 1, !range !6, !noundef !7
  %83 = trunc i8 %82 to i1
  call void @decode_Tango_TimeVal_st(ptr noundef %75, ptr noundef %76, ptr noundef %77, ptr noundef %78, ptr noundef %79, ptr noundef %80, ptr noundef %81, i1 noundef zeroext %83)
  call void @llvm.lifetime.end.p0(i64 8, ptr %21) #6
  %84 = load ptr, ptr %11, align 8
  %85 = load ptr, ptr %9, align 8
  %86 = load ptr, ptr %13, align 8
  %87 = load i8, ptr %16, align 1, !range !6, !noundef !7
  %88 = trunc i8 %87 to i1
  %89 = load i32, ptr @boundary, align 4
  %90 = load i32, ptr @hf_Tango_AttributeValue_4_name, align 4
  call void @giop_add_CDR_string(ptr noundef %84, ptr noundef %85, ptr noundef %86, i1 noundef zeroext %88, i32 noundef %89, i32 noundef %90)
  call void @llvm.lifetime.start.p0(i64 8, ptr %22) #6
  %91 = load ptr, ptr %11, align 8
  %92 = load ptr, ptr %9, align 8
  %93 = load ptr, ptr %13, align 8
  %94 = load i32, ptr %93, align 4
  %95 = load i32, ptr @ett_giop_struct, align 4
  %96 = call ptr @proto_tree_add_subtree(ptr noundef %91, ptr noundef %92, i32 noundef %94, i32 noundef -1, i32 noundef %95, ptr noundef null, ptr noundef @.str.789)
  store ptr %96, ptr %22, align 8
  %97 = load ptr, ptr %9, align 8
  %98 = load ptr, ptr %10, align 8
  %99 = load ptr, ptr %22, align 8
  %100 = load ptr, ptr %12, align 8
  %101 = load ptr, ptr %13, align 8
  %102 = load ptr, ptr %14, align 8
  %103 = load ptr, ptr %15, align 8
  %104 = load i8, ptr %16, align 1, !range !6, !noundef !7
  %105 = trunc i8 %104 to i1
  call void @decode_Tango_AttributeDim_st(ptr noundef %97, ptr noundef %98, ptr noundef %99, ptr noundef %100, ptr noundef %101, ptr noundef %102, ptr noundef %103, i1 noundef zeroext %105)
  call void @llvm.lifetime.end.p0(i64 8, ptr %22) #6
  call void @llvm.lifetime.start.p0(i64 8, ptr %23) #6
  %106 = load ptr, ptr %11, align 8
  %107 = load ptr, ptr %9, align 8
  %108 = load ptr, ptr %13, align 8
  %109 = load i32, ptr %108, align 4
  %110 = load i32, ptr @ett_giop_struct, align 4
  %111 = call ptr @proto_tree_add_subtree(ptr noundef %106, ptr noundef %107, i32 noundef %109, i32 noundef -1, i32 noundef %110, ptr noundef null, ptr noundef @.str.789)
  store ptr %111, ptr %23, align 8
  %112 = load ptr, ptr %9, align 8
  %113 = load ptr, ptr %10, align 8
  %114 = load ptr, ptr %23, align 8
  %115 = load ptr, ptr %12, align 8
  %116 = load ptr, ptr %13, align 8
  %117 = load ptr, ptr %14, align 8
  %118 = load ptr, ptr %15, align 8
  %119 = load i8, ptr %16, align 1, !range !6, !noundef !7
  %120 = trunc i8 %119 to i1
  call void @decode_Tango_AttributeDim_st(ptr noundef %112, ptr noundef %113, ptr noundef %114, ptr noundef %115, ptr noundef %116, ptr noundef %117, ptr noundef %118, i1 noundef zeroext %120)
  call void @llvm.lifetime.end.p0(i64 8, ptr %23) #6
  %121 = load ptr, ptr %9, align 8
  %122 = load ptr, ptr %13, align 8
  %123 = load i8, ptr %16, align 1, !range !6, !noundef !7
  %124 = trunc i8 %123 to i1
  %125 = load i32, ptr @boundary, align 4
  %126 = call i32 @get_CDR_ulong(ptr noundef %121, ptr noundef %122, i1 noundef zeroext %124, i32 noundef %125)
  store i32 %126, ptr %18, align 4
  %127 = load ptr, ptr %11, align 8
  %128 = load i32, ptr @hf_Tango_AttributeValue_4_err_list_loop, align 4
  %129 = load ptr, ptr %9, align 8
  %130 = load ptr, ptr %13, align 8
  %131 = load i32, ptr %130, align 4
  %132 = sub i32 %131, 4
  %133 = load i32, ptr %18, align 4
  %134 = call ptr @proto_tree_add_uint(ptr noundef %127, i32 noundef %128, ptr noundef %129, i32 noundef %132, i32 noundef 4, i32 noundef %133)
  call void @llvm.lifetime.start.p0(i64 8, ptr %24) #6
  %135 = load ptr, ptr %11, align 8
  store ptr %135, ptr %24, align 8
  %136 = load ptr, ptr %11, align 8
  %137 = load ptr, ptr %9, align 8
  %138 = load ptr, ptr %13, align 8
  %139 = load i32, ptr %138, align 4
  %140 = load i32, ptr @ett_giop_sequence, align 4
  %141 = call ptr @proto_tree_add_subtree(ptr noundef %136, ptr noundef %137, i32 noundef %139, i32 noundef -1, i32 noundef %140, ptr noundef null, ptr noundef @.str.801)
  store ptr %141, ptr %11, align 8
  store i32 0, ptr %19, align 4
  br label %142

142:                                              ; preds = %162, %8
  %143 = load i32, ptr %19, align 4
  %144 = load i32, ptr %18, align 4
  %145 = icmp ult i32 %143, %144
  br i1 %145, label %146, label %165

146:                                              ; preds = %142
  call void @llvm.lifetime.start.p0(i64 8, ptr %25) #6
  %147 = load ptr, ptr %11, align 8
  %148 = load ptr, ptr %9, align 8
  %149 = load ptr, ptr %13, align 8
  %150 = load i32, ptr %149, align 4
  %151 = load i32, ptr @ett_giop_struct, align 4
  %152 = call ptr @proto_tree_add_subtree(ptr noundef %147, ptr noundef %148, i32 noundef %150, i32 noundef -1, i32 noundef %151, ptr noundef null, ptr noundef @.str.764)
  store ptr %152, ptr %25, align 8
  %153 = load ptr, ptr %9, align 8
  %154 = load ptr, ptr %10, align 8
  %155 = load ptr, ptr %25, align 8
  %156 = load ptr, ptr %12, align 8
  %157 = load ptr, ptr %13, align 8
  %158 = load ptr, ptr %14, align 8
  %159 = load ptr, ptr %15, align 8
  %160 = load i8, ptr %16, align 1, !range !6, !noundef !7
  %161 = trunc i8 %160 to i1
  call void @decode_Tango_DevError_st(ptr noundef %153, ptr noundef %154, ptr noundef %155, ptr noundef %156, ptr noundef %157, ptr noundef %158, ptr noundef %159, i1 noundef zeroext %161)
  call void @llvm.lifetime.end.p0(i64 8, ptr %25) #6
  br label %162

162:                                              ; preds = %146
  %163 = load i32, ptr %19, align 4
  %164 = add i32 %163, 1
  store i32 %164, ptr %19, align 4
  br label %142, !llvm.loop !64

165:                                              ; preds = %142
  %166 = load ptr, ptr %24, align 8
  store ptr %166, ptr %11, align 8
  call void @llvm.lifetime.end.p0(i64 8, ptr %24) #6
  call void @llvm.lifetime.end.p0(i64 4, ptr %19) #6
  call void @llvm.lifetime.end.p0(i64 4, ptr %18) #6
  call void @llvm.lifetime.end.p0(i64 4, ptr %17) #6
  ret void
}