; Function Attrs: null_pointer_is_valid sspstrong uwtable
define internal fastcc void @decode_Tango_AttributeValue_4_st(ptr noundef %0, ptr noundef readonly captures(none) %1, ptr noundef %2, ptr noundef %3, i1 noundef zeroext %4) unnamed_addr #0 {
  %6 = load i32, ptr %3, align 4
  %7 = load i32, ptr @ett_giop_union, align 4
  %8 = tail call ptr @proto_tree_add_subtree(ptr noundef %2, ptr noundef %0, i32 noundef %6, i32 noundef -1, i32 noundef %7, ptr noundef null, ptr noundef nonnull @.str.800)
  tail call fastcc void @decode_Tango_AttrValUnion_un(ptr noundef %0, ptr noundef %1, ptr noundef %8, ptr noundef %3, i1 noundef zeroext %4)
  %9 = tail call i32 @get_CDR_enum(ptr noundef %0, ptr noundef %3, i1 noundef zeroext %4, i32 noundef 12)
  %10 = load i32, ptr @hf_Tango_AttributeValue_4_quality, align 4
  %11 = load i32, ptr %3, align 4
  %12 = add i32 %11, -4
  %13 = tail call ptr @proto_tree_add_uint(ptr noundef %2, i32 noundef %10, ptr noundef %0, i32 noundef %12, i32 noundef 4, i32 noundef %9)
  %14 = tail call i32 @get_CDR_enum(ptr noundef %0, ptr noundef %3, i1 noundef zeroext %4, i32 noundef 12)
  %15 = load i32, ptr @hf_Tango_AttributeValue_4_data_format, align 4
  %16 = load i32, ptr %3, align 4
  %17 = add i32 %16, -4
  %18 = tail call ptr @proto_tree_add_uint(ptr noundef %2, i32 noundef %15, ptr noundef %0, i32 noundef %17, i32 noundef 4, i32 noundef %14)
  %19 = load i32, ptr %3, align 4
  %20 = load i32, ptr @ett_giop_struct, align 4
  %21 = tail call ptr @proto_tree_add_subtree(ptr noundef %2, ptr noundef %0, i32 noundef %19, i32 noundef -1, i32 noundef %20, ptr noundef null, ptr noundef nonnull @.str.773)
  %22 = load i32, ptr @hf_Tango_TimeVal_tv_sec, align 4
  %23 = load i32, ptr %3, align 4
  %24 = add i32 %23, -4
  %25 = tail call i32 @get_CDR_long(ptr noundef %0, ptr noundef %3, i1 noundef zeroext %4, i32 noundef 12)
  %26 = tail call ptr @proto_tree_add_int(ptr noundef %21, i32 noundef %22, ptr noundef %0, i32 noundef %24, i32 noundef 4, i32 noundef %25)
  %27 = load i32, ptr @hf_Tango_TimeVal_tv_usec, align 4
  %28 = load i32, ptr %3, align 4
  %29 = add i32 %28, -4
  %30 = tail call i32 @get_CDR_long(ptr noundef %0, ptr noundef %3, i1 noundef zeroext %4, i32 noundef 12)
  %31 = tail call ptr @proto_tree_add_int(ptr noundef %21, i32 noundef %27, ptr noundef %0, i32 noundef %29, i32 noundef 4, i32 noundef %30)
  %32 = load i32, ptr @hf_Tango_TimeVal_tv_nsec, align 4
  %33 = load i32, ptr %3, align 4
  %34 = add i32 %33, -4
  %35 = tail call i32 @get_CDR_long(ptr noundef %0, ptr noundef %3, i1 noundef zeroext %4, i32 noundef 12)
  %36 = tail call ptr @proto_tree_add_int(ptr noundef %21, i32 noundef %32, ptr noundef %0, i32 noundef %34, i32 noundef 4, i32 noundef %35)
  %37 = load i32, ptr @hf_Tango_AttributeValue_4_name, align 4
  tail call void @giop_add_CDR_string(ptr noundef %2, ptr noundef %0, ptr noundef %3, i1 noundef zeroext %4, i32 noundef 12, i32 noundef %37)
  %38 = load i32, ptr %3, align 4
  %39 = load i32, ptr @ett_giop_struct, align 4
  %40 = tail call ptr @proto_tree_add_subtree(ptr noundef %2, ptr noundef %0, i32 noundef %38, i32 noundef -1, i32 noundef %39, ptr noundef null, ptr noundef nonnull @.str.789)
  %41 = load i32, ptr @hf_Tango_AttributeDim_dim_x, align 4
  %42 = load i32, ptr %3, align 4
  %43 = add i32 %42, -4
  %44 = tail call i32 @get_CDR_long(ptr noundef %0, ptr noundef %3, i1 noundef zeroext %4, i32 noundef 12)
  %45 = tail call ptr @proto_tree_add_int(ptr noundef %40, i32 noundef %41, ptr noundef %0, i32 noundef %43, i32 noundef 4, i32 noundef %44)
  %46 = load i32, ptr @hf_Tango_AttributeDim_dim_y, align 4
  %47 = load i32, ptr %3, align 4
  %48 = add i32 %47, -4
  %49 = tail call i32 @get_CDR_long(ptr noundef %0, ptr noundef %3, i1 noundef zeroext %4, i32 noundef 12)
  %50 = tail call ptr @proto_tree_add_int(ptr noundef %40, i32 noundef %46, ptr noundef %0, i32 noundef %48, i32 noundef 4, i32 noundef %49)
  %51 = load i32, ptr %3, align 4
  %52 = load i32, ptr @ett_giop_struct, align 4
  %53 = tail call ptr @proto_tree_add_subtree(ptr noundef %2, ptr noundef %0, i32 noundef %51, i32 noundef -1, i32 noundef %52, ptr noundef null, ptr noundef nonnull @.str.789)
  %54 = load i32, ptr @hf_Tango_AttributeDim_dim_x, align 4
  %55 = load i32, ptr %3, align 4
  %56 = add i32 %55, -4
  %57 = tail call i32 @get_CDR_long(ptr noundef %0, ptr noundef %3, i1 noundef zeroext %4, i32 noundef 12)
  %58 = tail call ptr @proto_tree_add_int(ptr noundef %53, i32 noundef %54, ptr noundef %0, i32 noundef %56, i32 noundef 4, i32 noundef %57)
  %59 = load i32, ptr @hf_Tango_AttributeDim_dim_y, align 4
  %60 = load i32, ptr %3, align 4
  %61 = add i32 %60, -4
  %62 = tail call i32 @get_CDR_long(ptr noundef %0, ptr noundef %3, i1 noundef zeroext %4, i32 noundef 12)
  %63 = tail call ptr @proto_tree_add_int(ptr noundef %53, i32 noundef %59, ptr noundef %0, i32 noundef %61, i32 noundef 4, i32 noundef %62)
  %64 = tail call i32 @get_CDR_ulong(ptr noundef %0, ptr noundef %3, i1 noundef zeroext %4, i32 noundef 12)
  %65 = load i32, ptr @hf_Tango_AttributeValue_4_err_list_loop, align 4
  %66 = load i32, ptr %3, align 4
  %67 = add i32 %66, -4
  %68 = tail call ptr @proto_tree_add_uint(ptr noundef %2, i32 noundef %65, ptr noundef %0, i32 noundef %67, i32 noundef 4, i32 noundef %64)
  %69 = load i32, ptr %3, align 4
  %70 = load i32, ptr @ett_giop_sequence, align 4
  %71 = tail call ptr @proto_tree_add_subtree(ptr noundef %2, ptr noundef %0, i32 noundef %69, i32 noundef -1, i32 noundef %70, ptr noundef null, ptr noundef nonnull @.str.801)
  %.not = icmp eq i32 %64, 0
  br i1 %.not, label %._crit_edge, label %.lr.ph

.lr.ph:                                           ; preds = %5, %.lr.ph
  %.01 = phi i32 [ %83, %.lr.ph ], [ 0, %5 ]
  %72 = load i32, ptr %3, align 4
  %73 = load i32, ptr @ett_giop_struct, align 4
  %74 = tail call ptr @proto_tree_add_subtree(ptr noundef %71, ptr noundef %0, i32 noundef %72, i32 noundef -1, i32 noundef %73, ptr noundef null, ptr noundef nonnull @.str.764)
  %75 = load i32, ptr @hf_Tango_DevError_reason, align 4
  tail call void @giop_add_CDR_string(ptr noundef %74, ptr noundef %0, ptr noundef %3, i1 noundef zeroext %4, i32 noundef 12, i32 noundef %75)
  %76 = tail call i32 @get_CDR_enum(ptr noundef %0, ptr noundef %3, i1 noundef zeroext %4, i32 noundef 12)
  %77 = load i32, ptr @hf_Tango_DevError_severity, align 4
  %78 = load i32, ptr %3, align 4
  %79 = add i32 %78, -4
  %80 = tail call ptr @proto_tree_add_uint(ptr noundef %74, i32 noundef %77, ptr noundef %0, i32 noundef %79, i32 noundef 4, i32 noundef %76)
  %81 = load i32, ptr @hf_Tango_DevError_desc, align 4
  tail call void @giop_add_CDR_string(ptr noundef %74, ptr noundef %0, ptr noundef %3, i1 noundef zeroext %4, i32 noundef 12, i32 noundef %81)
  %82 = load i32, ptr @hf_Tango_DevError_origin, align 4
  tail call void @giop_add_CDR_string(ptr noundef %74, ptr noundef %0, ptr noundef %3, i1 noundef zeroext %4, i32 noundef 12, i32 noundef %82)
  %83 = add nuw i32 %.01, 1
  %exitcond.not = icmp eq i32 %83, %64
  br i1 %exitcond.not, label %._crit_edge, label %.lr.ph, !llvm.loop !79

._crit_edge:                                      ; preds = %.lr.ph, %5
  ret void
}